Certificate:
    Data:
        Version: 3 (0x2)
        Serial Number: 3 (0x3)
        Signature Algorithm: sha1WithRSAEncryption
        Issuer: C=PT, ST=Lisboa, L=Taguspark, O=ICI, OU=SCADA, CN=CA_SCADA/emailAddress=scada_ca@ici.pt
        Validity
            Not Before: May 15 09:53:43 2018 GMT
            Not After : May 12 09:53:43 2028 GMT
        Subject: C=PT, ST=Lisboa, L=Cascais, O=ICI, OU=Substation2, CN=Client_Sub2/emailAddress=sub2@ici.pt
        Subject Public Key Info:
            Public Key Algorithm: rsaEncryption
            RSA Public Key: (1024 bit)
                Modulus (1024 bit):
                    00:b3:6b:bf:e5:bf:46:e5:d6:9c:20:c5:3c:ba:ca:
                    75:73:94:6d:ec:c9:f5:46:e4:3f:07:e0:de:c5:54:
                    e3:ae:03:18:f0:54:72:0d:e4:46:e3:15:56:08:87:
                    e4:c0:9b:5a:c0:83:25:c3:51:f7:d2:f6:fc:7e:f7:
                    60:47:d2:ff:29:07:e2:4e:75:62:65:9a:fc:c5:a5:
                    ba:21:21:74:90:99:93:33:f0:82:74:e6:68:11:ad:
                    b7:3e:77:93:74:2b:63:31:5b:39:f6:58:00:0c:95:
                    76:12:c8:98:7e:04:81:9a:b4:64:f8:0a:8b:cf:87:
                    2f:df:b2:7d:1a:2d:37:37:3b
                Exponent: 65537 (0x10001)
        X509v3 extensions:
            X509v3 Basic Constraints: 
                CA:FALSE
            Netscape Comment: 
                Easy-RSA Generated Certificate
            X509v3 Subject Key Identifier: 
                21:C4:D3:3F:55:B3:69:3C:3A:90:CC:38:E7:4B:55:1C:42:1C:30:7F
            X509v3 Authority Key Identifier: 
                keyid:DF:BE:B4:78:41:FE:94:B7:DD:A7:1B:D3:AB:43:32:EE:0D:2F:49:9E
                DirName:/C=PT/ST=Lisboa/L=Taguspark/O=ICI/OU=SCADA/CN=CA_SCADA/emailAddress=scada_ca@ici.pt
                serial:E3:0D:DB:9D:77:AF:44:0A

            X509v3 Extended Key Usage: 
                TLS Web Client Authentication
            X509v3 Key Usage: 
                Digital Signature
    Signature Algorithm: sha1WithRSAEncryption
        66:fb:1e:48:f2:b4:78:77:ca:de:5c:d0:5d:5e:11:b6:da:1c:
        7c:e9:f2:2f:bb:2c:0b:a3:38:ea:f4:60:2b:da:b8:3e:34:48:
        a7:5d:59:f2:df:f8:a6:64:cb:f5:b4:31:49:39:13:b6:97:87:
        3d:26:14:4b:1b:f5:6f:71:30:21:cd:35:6d:05:af:56:b2:21:
        d9:99:78:4f:bb:4f:9a:04:73:2b:b3:90:a6:2f:00:ab:03:41:
        ce:c8:5f:b4:25:1b:6e:03:3c:41:0b:91:38:ed:35:11:82:61:
        d6:5b:97:a5:8c:a0:b5:f8:3e:c1:38:a6:f9:9a:30:9e:fc:ab:
        73:e5
-----BEGIN CERTIFICATE-----
MIIDvTCCAyagAwIBAgIBAzANBgkqhkiG9w0BAQUFADCBgzELMAkGA1UEBhMCUFQx
DzANBgNVBAgTBkxpc2JvYTESMBAGA1UEBxMJVGFndXNwYXJrMQwwCgYDVQQKEwNJ
Q0kxDjAMBgNVBAsTBVNDQURBMREwDwYDVQQDFAhDQV9TQ0FEQTEeMBwGCSqGSIb3
DQEJARYPc2NhZGFfY2FAaWNpLnB0MB4XDTE4MDUxNTA5NTM0M1oXDTI4MDUxMjA5
NTM0M1owgYYxCzAJBgNVBAYTAlBUMQ8wDQYDVQQIEwZMaXNib2ExEDAOBgNVBAcT
B0Nhc2NhaXMxDDAKBgNVBAoTA0lDSTEUMBIGA1UECxMLU3Vic3RhdGlvbjIxFDAS
BgNVBAMUC0NsaWVudF9TdWIyMRowGAYJKoZIhvcNAQkBFgtzdWIyQGljaS5wdDCB
nzANBgkqhkiG9w0BAQEFAAOBjQAwgYkCgYEAs2u/5b9G5dacIMU8usp1c5Rt7Mn1
RuQ/B+DexVTjrgMY8FRyDeRG4xVWCIfkwJtawIMlw1H30vb8fvdgR9L/KQfiTnVi
ZZr8xaW6ISF0kJmTM/CCdOZoEa23PneTdCtjMVs59lgADJV2EsiYfgSBmrRk+AqL
z4cv37J9Gi03NzsCAwEAAaOCATowggE2MAkGA1UdEwQCMAAwLQYJYIZIAYb4QgEN
BCAWHkVhc3ktUlNBIEdlbmVyYXRlZCBDZXJ0aWZpY2F0ZTAdBgNVHQ4EFgQUIcTT
P1WzaTw6kMw450tVHEIcMH8wgbgGA1UdIwSBsDCBrYAU3760eEH+lLfdpxvTq0My
7g0vSZ6hgYmkgYYwgYMxCzAJBgNVBAYTAlBUMQ8wDQYDVQQIEwZMaXNib2ExEjAQ
BgNVBAcTCVRhZ3VzcGFyazEMMAoGA1UEChMDSUNJMQ4wDAYDVQQLEwVTQ0FEQTER
MA8GA1UEAxQIQ0FfU0NBREExHjAcBgkqhkiG9w0BCQEWD3NjYWRhX2NhQGljaS5w
dIIJAOMN2513r0QKMBMGA1UdJQQMMAoGCCsGAQUFBwMCMAsGA1UdDwQEAwIHgDAN
BgkqhkiG9w0BAQUFAAOBgQBm+x5I8rR4d8reXNBdXhG22hx86fIvuywLozjq9GAr
2rg+NEinXVny3/imZMv1tDFJORO2l4c9JhRLG/VvcTAhzTVtBa9WsiHZmXhPu0+a
BHMrs5CmLwCrA0HOyF+0JRtuAzxBC5E47TURgmHWW5eljKC1+D7BOKb5mjCe/Ktz
5Q==
-----END CERTIFICATE-----
